target datalayout = "e-m:e-p270:32:32-p271:32:32-p272:64:64-i64:64-i128:128-f80:128-n8:16:32:64-S128"
target triple = "x86_64-pc-linux-gnu"

%struct.Fraig_NodeStruct_t_ = type { i32, i32, i32, i32, i32, i32, i32, ptr, ptr, ptr, ptr, ptr, ptr, ptr, ptr, i32, i32, ptr, ptr, ptr, ptr, ptr, ptr, ptr }

; Function Attrs: nounwind uwtable
define i32 @Fraig_NodeVecCompareLevelsDecreasing(ptr noundef %0, ptr noundef %1) #0 {
  %3 = alloca i32, align 4
  %4 = alloca ptr, align 8
  %5 = alloca ptr, align 8
  %6 = alloca i32, align 4
  %7 = alloca i32, align 4
  %8 = alloca i32, align 4
  store ptr %0, ptr %4, align 8, !tbaa !28
  store ptr %1, ptr %5, align 8, !tbaa !28
  call void @llvm.lifetime.start.p0(i64 4, ptr %6) #7
  %9 = load ptr, ptr %4, align 8, !tbaa !28
  %10 = load ptr, ptr %9, align 8, !tbaa !15
  %11 = ptrtoint ptr %10 to i64
  %12 = and i64 %11, -2
  %13 = inttoptr i64 %12 to ptr
  %14 = getelementptr inbounds nuw %struct.Fraig_NodeStruct_t_, ptr %13, i32 0, i32 2
  %15 = load i32, ptr %14, align 8, !tbaa !21
  store i32 %15, ptr %6, align 4, !tbaa !3
  call void @llvm.lifetime.start.p0(i64 4, ptr %7) #7
  %16 = load ptr, ptr %5, align 8, !tbaa !28
  %17 = load ptr, ptr %16, align 8, !tbaa !15
  %18 = ptrtoint ptr %17 to i64
  %19 = and i64 %18, -2
  %20 = inttoptr i64 %19 to ptr
  %21 = getelementptr inbounds nuw %struct.Fraig_NodeStruct_t_, ptr %20, i32 0, i32 2
  %22 = load i32, ptr %21, align 8, !tbaa !21
  store i32 %22, ptr %7, align 4, !tbaa !3
  %23 = load i32, ptr %6, align 4, !tbaa !3
  %24 = load i32, ptr %7, align 4, !tbaa !3
  %25 = icmp sgt i32 %23, %24
  br i1 %25, label %26, label %27

26:                                               ; preds = %2
  store i32 -1, ptr %3, align 4
  store i32 1, ptr %8, align 4
  br label %33

27:                                               ; preds = %2
  %28 = load i32, ptr %6, align 4, !tbaa !3
  %29 = load i32, ptr %7, align 4, !tbaa !3
  %30 = icmp slt i32 %28, %29
  br i1 %30, label %31, label %32

31:                                               ; preds = %27
  store i32 1, ptr %3, align 4
  store i32 1, ptr %8, align 4
  br label %33

32:                                               ; preds = %27
  store i32 0, ptr %3, align 4
  store i32 1, ptr %8, align 4
  br label %33

33:                                               ; preds = %32, %31, %26
  call void @llvm.lifetime.end.p0(i64 4, ptr %7) #7
  call void @llvm.lifetime.end.p0(i64 4, ptr %6) #7
  %34 = load i32, ptr %3, align 4
  ret i32 %34
}